target datalayout = "e-m:e-p270:32:32-p271:32:32-p272:64:64-i64:64-i128:128-f80:128-n8:16:32:64-S128"
target triple = "x86_64-pc-linux-gnu"

%struct.PhotosensitivityFrame = type { [8 x [8 x [4 x i8]]] }
%struct.AVChannelLayout = type { i32, i32, %union.anon.1, ptr }
%union.anon.1 = type { i64 }
%struct.AVRational = type { i32, i32 }
%struct.AVFrame = type { [8 x ptr], [8 x i32], ptr, i32, i32, i32, i32, i32, %struct.AVRational, i64, i64, %struct.AVRational, i32, ptr, i32, i32, [8 x ptr], ptr, i32, ptr, i32, i32, i32, i32, i32, i32, i32, i64, ptr, i32, ptr, ptr, i64, i64, i64, i64, ptr, %struct.AVChannelLayout, i64 }
%struct.ThreadData_convert_frame = type { ptr, ptr, i32 }

; Function Attrs: nounwind uwtable
define internal i32 @convert_frame_partial(ptr noundef %0, ptr noundef %1, i32 noundef %2, i32 noundef %3) #1 {
  %5 = alloca ptr, align 8
  %6 = alloca ptr, align 8
  %7 = alloca i32, align 4
  %8 = alloca i32, align 4
  %9 = alloca i32, align 4
  %10 = alloca i32, align 4
  %11 = alloca i32, align 4
  %12 = alloca i32, align 4
  %13 = alloca i32, align 4
  %14 = alloca i32, align 4
  %15 = alloca i32, align 4
  %16 = alloca i32, align 4
  %17 = alloca i32, align 4
  %18 = alloca i32, align 4
  %19 = alloca i32, align 4
  %20 = alloca [3 x i32], align 4
  %21 = alloca ptr, align 8
  %22 = alloca ptr, align 8
  %23 = alloca i32, align 4
  %24 = alloca i32, align 4
  %25 = alloca i32, align 4
  %26 = alloca i32, align 4
  %27 = alloca i32, align 4
  %28 = alloca i32, align 4
  %29 = alloca ptr, align 8
  store ptr %0, ptr %5, align 8, !tbaa !4
  store ptr %1, ptr %6, align 8, !tbaa !77
  store i32 %2, ptr %7, align 4, !tbaa !28
  store i32 %3, ptr %8, align 4, !tbaa !28
  call void @llvm.lifetime.start.p0(i64 4, ptr %9) #8
  call void @llvm.lifetime.start.p0(i64 4, ptr %10) #8
  call void @llvm.lifetime.start.p0(i64 4, ptr %11) #8
  call void @llvm.lifetime.start.p0(i64 4, ptr %12) #8
  call void @llvm.lifetime.start.p0(i64 4, ptr %13) #8
  call void @llvm.lifetime.start.p0(i64 4, ptr %14) #8
  call void @llvm.lifetime.start.p0(i64 4, ptr %15) #8
  call void @llvm.lifetime.start.p0(i64 4, ptr %16) #8
  call void @llvm.lifetime.start.p0(i64 4, ptr %17) #8
  call void @llvm.lifetime.start.p0(i64 4, ptr %18) #8
  call void @llvm.lifetime.start.p0(i64 4, ptr %19) #8
  call void @llvm.lifetime.start.p0(i64 12, ptr %20) #8
  call void @llvm.lifetime.start.p0(i64 8, ptr %21) #8
  call void @llvm.lifetime.start.p0(i64 8, ptr %22) #8
  %30 = load ptr, ptr %6, align 8, !tbaa !77
  store ptr %30, ptr %22, align 8, !tbaa !78
  call void @llvm.lifetime.start.p0(i64 4, ptr %23) #8
  %31 = load i32, ptr %7, align 4, !tbaa !28
  %32 = mul nsw i32 64, %31
  %33 = load i32, ptr %8, align 4, !tbaa !28
  %34 = sdiv i32 %32, %33
  store i32 %34, ptr %23, align 4, !tbaa !28
  call void @llvm.lifetime.start.p0(i64 4, ptr %24) #8
  %35 = load i32, ptr %7, align 4, !tbaa !28
  %36 = add nsw i32 %35, 1
  %37 = mul nsw i32 64, %36
  %38 = load i32, ptr %8, align 4, !tbaa !28
  %39 = sdiv i32 %37, %38
  store i32 %39, ptr %24, align 4, !tbaa !28
  call void @llvm.lifetime.start.p0(i64 4, ptr %25) #8
  %40 = load ptr, ptr %22, align 8, !tbaa !78
  %41 = getelementptr inbounds nuw %struct.ThreadData_convert_frame, ptr %40, i32 0, i32 0
  %42 = load ptr, ptr %41, align 8, !tbaa !64
  %43 = getelementptr inbounds nuw %struct.AVFrame, ptr %42, i32 0, i32 3
  %44 = load i32, ptr %43, align 8, !tbaa !52
  store i32 %44, ptr %25, align 4, !tbaa !28
  call void @llvm.lifetime.start.p0(i64 4, ptr %26) #8
  %45 = load ptr, ptr %22, align 8, !tbaa !78
  %46 = getelementptr inbounds nuw %struct.ThreadData_convert_frame, ptr %45, i32 0, i32 0
  %47 = load ptr, ptr %46, align 8, !tbaa !64
  %48 = getelementptr inbounds nuw %struct.AVFrame, ptr %47, i32 0, i32 4
  %49 = load i32, ptr %48, align 4, !tbaa !58
  store i32 %49, ptr %26, align 4, !tbaa !28
  call void @llvm.lifetime.start.p0(i64 4, ptr %27) #8
  %50 = load ptr, ptr %22, align 8, !tbaa !78
  %51 = getelementptr inbounds nuw %struct.ThreadData_convert_frame, ptr %50, i32 0, i32 0
  %52 = load ptr, ptr %51, align 8, !tbaa !64
  %53 = getelementptr inbounds nuw %struct.AVFrame, ptr %52, i32 0, i32 1
  %54 = getelementptr inbounds [8 x i32], ptr %53, i64 0, i64 0
  %55 = load i32, ptr %54, align 8, !tbaa !28
  store i32 %55, ptr %27, align 4, !tbaa !28
  call void @llvm.lifetime.start.p0(i64 4, ptr %28) #8
  %56 = load ptr, ptr %22, align 8, !tbaa !78
  %57 = getelementptr inbounds nuw %struct.ThreadData_convert_frame, ptr %56, i32 0, i32 2
  %58 = load i32, ptr %57, align 8, !tbaa !67
  store i32 %58, ptr %28, align 4, !tbaa !28
  call void @llvm.lifetime.start.p0(i64 8, ptr %29) #8
  %59 = load ptr, ptr %22, align 8, !tbaa !78
  %60 = getelementptr inbounds nuw %struct.ThreadData_convert_frame, ptr %59, i32 0, i32 0
  %61 = load ptr, ptr %60, align 8, !tbaa !64
  %62 = getelementptr inbounds nuw %struct.AVFrame, ptr %61, i32 0, i32 0
  %63 = getelementptr inbounds [8 x ptr], ptr %62, i64 0, i64 0
  %64 = load ptr, ptr %63, align 8, !tbaa !80
  store ptr %64, ptr %29, align 8, !tbaa !80
  %65 = load i32, ptr %23, align 4, !tbaa !28
  store i32 %65, ptr %9, align 4, !tbaa !28
  br label %66

66:                                               ; preds = %215, %4
  %67 = load i32, ptr %9, align 4, !tbaa !28
  %68 = load i32, ptr %24, align 4, !tbaa !28
  %69 = icmp slt i32 %67, %68
  br i1 %69, label %70, label %218

70:                                               ; preds = %66
  %71 = load i32, ptr %9, align 4, !tbaa !28
  %72 = srem i32 %71, 8
  store i32 %72, ptr %10, align 4, !tbaa !28
  %73 = load i32, ptr %9, align 4, !tbaa !28
  %74 = sdiv i32 %73, 8
  store i32 %74, ptr %11, align 4, !tbaa !28
  %75 = load i32, ptr %25, align 4, !tbaa !28
  %76 = load i32, ptr %10, align 4, !tbaa !28
  %77 = mul nsw i32 %75, %76
  %78 = sdiv i32 %77, 8
  store i32 %78, ptr %12, align 4, !tbaa !28
  %79 = load i32, ptr %25, align 4, !tbaa !28
  %80 = load i32, ptr %10, align 4, !tbaa !28
  %81 = add nsw i32 %80, 1
  %82 = mul nsw i32 %79, %81
  %83 = sdiv i32 %82, 8
  store i32 %83, ptr %13, align 4, !tbaa !28
  %84 = load i32, ptr %26, align 4, !tbaa !28
  %85 = load i32, ptr %11, align 4, !tbaa !28
  %86 = mul nsw i32 %84, %85
  %87 = sdiv i32 %86, 8
  store i32 %87, ptr %14, align 4, !tbaa !28
  %88 = load i32, ptr %26, align 4, !tbaa !28
  %89 = load i32, ptr %11, align 4, !tbaa !28
  %90 = add nsw i32 %89, 1
  %91 = mul nsw i32 %88, %90
  %92 = sdiv i32 %91, 8
  store i32 %92, ptr %15, align 4, !tbaa !28
  store i32 0, ptr %18, align 4, !tbaa !28
  br label %93

93:                                               ; preds = %100, %70
  %94 = load i32, ptr %18, align 4, !tbaa !28
  %95 = icmp slt i32 %94, 3
  br i1 %95, label %96, label %103

96:                                               ; preds = %93
  %97 = load i32, ptr %18, align 4, !tbaa !28
  %98 = sext i32 %97 to i64
  %99 = getelementptr inbounds [3 x i32], ptr %20, i64 0, i64 %98
  store i32 0, ptr %99, align 4, !tbaa !28
  br label %100

100:                                              ; preds = %96
  %101 = load i32, ptr %18, align 4, !tbaa !28
  %102 = add nsw i32 %101, 1
  store i32 %102, ptr %18, align 4, !tbaa !28
  br label %93, !llvm.loop !81

103:                                              ; preds = %93
  %104 = load i32, ptr %14, align 4, !tbaa !28
  store i32 %104, ptr %17, align 4, !tbaa !28
  br label %105

105:                                              ; preds = %157, %103
  %106 = load i32, ptr %17, align 4, !tbaa !28
  %107 = load i32, ptr %15, align 4, !tbaa !28
  %108 = icmp slt i32 %106, %107
  br i1 %108, label %109, label %161

109:                                              ; preds = %105
  %110 = load ptr, ptr %29, align 8, !tbaa !80
  %111 = load i32, ptr %17, align 4, !tbaa !28
  %112 = load i32, ptr %27, align 4, !tbaa !28
  %113 = mul nsw i32 %111, %112
  %114 = sext i32 %113 to i64
  %115 = getelementptr inbounds i8, ptr %110, i64 %114
  %116 = load i32, ptr %12, align 4, !tbaa !28
  %117 = mul nsw i32 %116, 3
  %118 = sext i32 %117 to i64
  %119 = getelementptr inbounds i8, ptr %115, i64 %118
  store ptr %119, ptr %21, align 8, !tbaa !80
  %120 = load i32, ptr %12, align 4, !tbaa !28
  store i32 %120, ptr %16, align 4, !tbaa !28
  br label %121

121:                                              ; preds = %152, %109
  %122 = load i32, ptr %16, align 4, !tbaa !28
  %123 = load i32, ptr %13, align 4, !tbaa !28
  %124 = icmp slt i32 %122, %123
  br i1 %124, label %125, label %156

125:                                              ; preds = %121
  %126 = load ptr, ptr %21, align 8, !tbaa !80
  %127 = getelementptr inbounds i8, ptr %126, i64 0
  %128 = load i8, ptr %127, align 1, !tbaa !51
  %129 = zext i8 %128 to i32
  %130 = getelementptr inbounds [3 x i32], ptr %20, i64 0, i64 0
  %131 = load i32, ptr %130, align 4, !tbaa !28
  %132 = add nsw i32 %131, %129
  store i32 %132, ptr %130, align 4, !tbaa !28
  %133 = load ptr, ptr %21, align 8, !tbaa !80
  %134 = getelementptr inbounds i8, ptr %133, i64 1
  %135 = load i8, ptr %134, align 1, !tbaa !51
  %136 = zext i8 %135 to i32
  %137 = getelementptr inbounds [3 x i32], ptr %20, i64 0, i64 1
  %138 = load i32, ptr %137, align 4, !tbaa !28
  %139 = add nsw i32 %138, %136
  store i32 %139, ptr %137, align 4, !tbaa !28
  %140 = load ptr, ptr %21, align 8, !tbaa !80
  %141 = getelementptr inbounds i8, ptr %140, i64 2
  %142 = load i8, ptr %141, align 1, !tbaa !51
  %143 = zext i8 %142 to i32
  %144 = getelementptr inbounds [3 x i32], ptr %20, i64 0, i64 2
  %145 = load i32, ptr %144, align 4, !tbaa !28
  %146 = add nsw i32 %145, %143
  store i32 %146, ptr %144, align 4, !tbaa !28
  %147 = load i32, ptr %28, align 4, !tbaa !28
  %148 = mul nsw i32 3, %147
  %149 = load ptr, ptr %21, align 8, !tbaa !80
  %150 = sext i32 %148 to i64
  %151 = getelementptr inbounds i8, ptr %149, i64 %150
  store ptr %151, ptr %21, align 8, !tbaa !80
  br label %152

152:                                              ; preds = %125
  %153 = load i32, ptr %28, align 4, !tbaa !28
  %154 = load i32, ptr %16, align 4, !tbaa !28
  %155 = add nsw i32 %154, %153
  store i32 %155, ptr %16, align 4, !tbaa !28
  br label %121, !llvm.loop !82

156:                                              ; preds = %121
  br label %157

157:                                              ; preds = %156
  %158 = load i32, ptr %28, align 4, !tbaa !28
  %159 = load i32, ptr %17, align 4, !tbaa !28
  %160 = add nsw i32 %159, %158
  store i32 %160, ptr %17, align 4, !tbaa !28
  br label %105, !llvm.loop !83

161:                                              ; preds = %105
  %162 = load i32, ptr %13, align 4, !tbaa !28
  %163 = load i32, ptr %12, align 4, !tbaa !28
  %164 = sub nsw i32 %162, %163
  %165 = load i32, ptr %28, align 4, !tbaa !28
  %166 = add nsw i32 %164, %165
  %167 = sub nsw i32 %166, 1
  %168 = load i32, ptr %28, align 4, !tbaa !28
  %169 = sdiv i32 %167, %168
  %170 = load i32, ptr %15, align 4, !tbaa !28
  %171 = load i32, ptr %14, align 4, !tbaa !28
  %172 = sub nsw i32 %170, %171
  %173 = load i32, ptr %28, align 4, !tbaa !28
  %174 = add nsw i32 %172, %173
  %175 = sub nsw i32 %174, 1
  %176 = load i32, ptr %28, align 4, !tbaa !28
  %177 = sdiv i32 %175, %176
  %178 = mul nsw i32 %169, %177
  store i32 %178, ptr %19, align 4, !tbaa !28
  store i32 0, ptr %18, align 4, !tbaa !28
  br label %179

179:                                              ; preds = %211, %161
  %180 = load i32, ptr %18, align 4, !tbaa !28
  %181 = icmp slt i32 %180, 3
  br i1 %181, label %182, label %214

182:                                              ; preds = %179
  %183 = load i32, ptr %19, align 4, !tbaa !28
  %184 = icmp ne i32 %183, 0
  br i1 %184, label %185, label %192

185:                                              ; preds = %182
  %186 = load i32, ptr %19, align 4, !tbaa !28
  %187 = load i32, ptr %18, align 4, !tbaa !28
  %188 = sext i32 %187 to i64
  %189 = getelementptr inbounds [3 x i32], ptr %20, i64 0, i64 %188
  %190 = load i32, ptr %189, align 4, !tbaa !28
  %191 = sdiv i32 %190, %186
  store i32 %191, ptr %189, align 4, !tbaa !28
  br label %192

192:                                              ; preds = %185, %182
  %193 = load i32, ptr %18, align 4, !tbaa !28
  %194 = sext i32 %193 to i64
  %195 = getelementptr inbounds [3 x i32], ptr %20, i64 0, i64 %194
  %196 = load i32, ptr %195, align 4, !tbaa !28
  %197 = trunc i32 %196 to i8
  %198 = load ptr, ptr %22, align 8, !tbaa !78
  %199 = getelementptr inbounds nuw %struct.ThreadData_convert_frame, ptr %198, i32 0, i32 1
  %200 = load ptr, ptr %199, align 8, !tbaa !66
  %201 = getelementptr inbounds nuw %struct.PhotosensitivityFrame, ptr %200, i32 0, i32 0
  %202 = load i32, ptr %11, align 4, !tbaa !28
  %203 = sext i32 %202 to i64
  %204 = getelementptr inbounds [8 x [8 x [4 x i8]]], ptr %201, i64 0, i64 %203
  %205 = load i32, ptr %10, align 4, !tbaa !28
  %206 = sext i32 %205 to i64
  %207 = getelementptr inbounds [8 x [4 x i8]], ptr %204, i64 0, i64 %206
  %208 = load i32, ptr %18, align 4, !tbaa !28
  %209 = sext i32 %208 to i64
  %210 = getelementptr inbounds [4 x i8], ptr %207, i64 0, i64 %209
  store i8 %197, ptr %210, align 1, !tbaa !51
  br label %211

211:                                              ; preds = %192
  %212 = load i32, ptr %18, align 4, !tbaa !28
  %213 = add nsw i32 %212, 1
  store i32 %213, ptr %18, align 4, !tbaa !28
  br label %179, !llvm.loop !84

214:                                              ; preds = %179
  br label %215

215:                                              ; preds = %214
  %216 = load i32, ptr %9, align 4, !tbaa !28
  %217 = add nsw i32 %216, 1
  store i32 %217, ptr %9, align 4, !tbaa !28
  br label %66, !llvm.loop !85

218:                                              ; preds = %66
  call void @llvm.lifetime.end.p0(i64 8, ptr %29) #8
  call void @llvm.lifetime.end.p0(i64 4, ptr %28) #8
  call void @llvm.lifetime.end.p0(i64 4, ptr %27) #8
  call void @llvm.lifetime.end.p0(i64 4, ptr %26) #8
  call void @llvm.lifetime.end.p0(i64 4, ptr %25) #8
  call void @llvm.lifetime.end.p0(i64 4, ptr %24) #8
  call void @llvm.lifetime.end.p0(i64 4, ptr %23) #8
  call void @llvm.lifetime.end.p0(i64 8, ptr %22) #8
  call void @llvm.lifetime.end.p0(i64 8, ptr %21) #8
  call void @llvm.lifetime.end.p0(i64 12, ptr %20) #8
  call void @llvm.lifetime.end.p0(i64 4, ptr %19) #8
  call void @llvm.lifetime.end.p0(i64 4, ptr %18) #8
  call void @llvm.lifetime.end.p0(i64 4, ptr %17) #8
  call void @llvm.lifetime.end.p0(i64 4, ptr %16) #8
  call void @llvm.lifetime.end.p0(i64 4, ptr %15) #8
  call void @llvm.lifetime.end.p0(i64 4, ptr %14) #8
  call void @llvm.lifetime.end.p0(i64 4, ptr %13) #8
  call void @llvm.lifetime.end.p0(i64 4, ptr %12) #8
  call void @llvm.lifetime.end.p0(i64 4, ptr %11) #8
  call void @llvm.lifetime.end.p0(i64 4, ptr %10) #8
  call void @llvm.lifetime.end.p0(i64 4, ptr %9) #8
  ret i32 0
}