; Function Attrs: nofree norecurse nosync nounwind memory(readwrite, inaccessiblemem: none) uwtable
define internal noundef i32 @convert_frame_partial(ptr readnone captures(none) %0, ptr noundef readonly captures(none) %1, i32 noundef %2, i32 noundef %3) #7 {
  %5 = alloca [3 x i32], align 4
  call void @llvm.lifetime.start.p0(i64 12, ptr nonnull %5) #11
  %6 = shl i32 %2, 6
  %7 = sdiv i32 %6, %3
  %8 = add i32 %6, 64
  %9 = sdiv i32 %8, %3
  %10 = load ptr, ptr %1, align 8, !tbaa !43
  %11 = getelementptr inbounds nuw i8, ptr %10, i64 104
  %12 = load i32, ptr %11, align 8, !tbaa !62
  %13 = getelementptr inbounds nuw i8, ptr %10, i64 108
  %14 = load i32, ptr %13, align 4, !tbaa !68
  %15 = getelementptr inbounds nuw i8, ptr %1, i64 16
  %16 = load i32, ptr %15, align 8, !tbaa !47
  %17 = load ptr, ptr %10, align 8, !tbaa !70
  %18 = icmp slt i32 %7, %9
  br i1 %18, label %.lr.ph, label %._crit_edge

.lr.ph:                                           ; preds = %4
  %19 = getelementptr inbounds nuw i8, ptr %10, i64 64
  %20 = load i32, ptr %19, align 8, !tbaa !39
  %21 = getelementptr inbounds nuw i8, ptr %5, i64 4
  %22 = getelementptr inbounds nuw i8, ptr %5, i64 8
  %23 = mul nsw i32 %16, 3
  %24 = sext i32 %23 to i64
  %25 = getelementptr inbounds nuw i8, ptr %1, i64 8
  %26 = sext i32 %16 to i64
  %27 = sext i32 %20 to i64
  %28 = getelementptr inbounds nuw i8, ptr %5, i64 4
  br label %.preheader

.preheader:                                       ; preds = %.lr.ph, %.split93.us
  %.094 = phi i32 [ %7, %.lr.ph ], [ %90, %.split93.us ]
  store i64 0, ptr %28, align 4
  %29 = srem i32 %.094, 8
  %30 = sdiv i32 %.094, 8
  %31 = mul nsw i32 %29, %12
  %32 = sdiv i32 %31, 8
  %33 = add nsw i32 %29, 1
  %34 = mul nsw i32 %33, %12
  %35 = sdiv i32 %34, 8
  %36 = mul nsw i32 %30, %14
  %37 = sdiv i32 %36, 8
  %38 = add nsw i32 %30, 1
  %39 = mul nsw i32 %38, %14
  %40 = sdiv i32 %39, 8
  %41 = icmp slt i32 %37, %40
  br i1 %41, label %.lr.ph81, label %67

.lr.ph81:                                         ; preds = %.preheader
  %42 = mul nsw i32 %32, 3
  %43 = sext i32 %42 to i64
  %invariant.gep = getelementptr i8, ptr %17, i64 %43
  %44 = icmp slt i32 %32, %35
  br i1 %44, label %.lr.ph.us.preheader, label %._crit_edge82

.lr.ph.us.preheader:                              ; preds = %.lr.ph81
  %45 = sext i32 %37 to i64
  %46 = sext i32 %40 to i64
  br label %.lr.ph.us

.lr.ph.us:                                        ; preds = %.lr.ph.us.preheader, %._crit_edge.us
  %indvars.iv = phi i64 [ %45, %.lr.ph.us.preheader ], [ %indvars.iv.next, %._crit_edge.us ]
  %.lcssa7688.us = phi i32 [ 0, %.lr.ph.us.preheader ], [ %62, %._crit_edge.us ]
  %.lcssa7485.us = phi i32 [ 0, %.lr.ph.us.preheader ], [ %58, %._crit_edge.us ]
  %.lcssa7879.us = phi i32 [ 0, %.lr.ph.us.preheader ], [ %54, %._crit_edge.us ]
  %47 = mul nsw i64 %indvars.iv, %27
  %gep.us = getelementptr i8, ptr %invariant.gep, i64 %47
  br label %48

48:                                               ; preds = %.lr.ph.us, %48
  %49 = phi i32 [ %.lcssa7688.us, %.lr.ph.us ], [ %62, %48 ]
  %50 = phi i32 [ %.lcssa7485.us, %.lr.ph.us ], [ %58, %48 ]
  %.06372.us = phi i32 [ %32, %.lr.ph.us ], [ %64, %48 ]
  %.06671.us = phi ptr [ %gep.us, %.lr.ph.us ], [ %63, %48 ]
  %51 = phi i32 [ %.lcssa7879.us, %.lr.ph.us ], [ %54, %48 ]
  %52 = load i8, ptr %.06671.us, align 1, !tbaa !48
  %53 = zext i8 %52 to i32
  %54 = add nsw i32 %51, %53
  %55 = getelementptr inbounds nuw i8, ptr %.06671.us, i64 1
  %56 = load i8, ptr %55, align 1, !tbaa !48
  %57 = zext i8 %56 to i32
  %58 = add nsw i32 %50, %57
  %59 = getelementptr inbounds nuw i8, ptr %.06671.us, i64 2
  %60 = load i8, ptr %59, align 1, !tbaa !48
  %61 = zext i8 %60 to i32
  %62 = add nsw i32 %49, %61
  %63 = getelementptr inbounds i8, ptr %.06671.us, i64 %24
  %64 = add nsw i32 %.06372.us, %16
  %65 = icmp slt i32 %64, %35
  br i1 %65, label %48, label %._crit_edge.us, !llvm.loop !71

._crit_edge.us:                                   ; preds = %48
  %indvars.iv.next = add nsw i64 %indvars.iv, %26
  %66 = icmp slt i64 %indvars.iv.next, %46
  br i1 %66, label %.lr.ph.us, label %._crit_edge82, !llvm.loop !72

._crit_edge82:                                    ; preds = %._crit_edge.us, %.lr.ph81
  %.us-phi = phi i32 [ 0, %.lr.ph81 ], [ %62, %._crit_edge.us ]
  %.us-phi89 = phi i32 [ 0, %.lr.ph81 ], [ %58, %._crit_edge.us ]
  %.us-phi90 = phi i32 [ 0, %.lr.ph81 ], [ %54, %._crit_edge.us ]
  store i32 %.us-phi89, ptr %21, align 4
  store i32 %.us-phi, ptr %22, align 4
  br label %67

67:                                               ; preds = %._crit_edge82, %.preheader
  %.lcssa78.lcssa = phi i32 [ %.us-phi90, %._crit_edge82 ], [ 0, %.preheader ]
  store i32 %.lcssa78.lcssa, ptr %5, align 4
  %68 = xor i32 %32, -1
  %69 = add i32 %16, %68
  %70 = add i32 %69, %35
  %71 = sdiv i32 %70, %16
  %72 = xor i32 %37, -1
  %73 = add i32 %16, %72
  %74 = add i32 %73, %40
  %75 = sdiv i32 %74, %16
  %76 = mul nsw i32 %75, %71
  %.not = icmp eq i32 %76, 0
  %77 = sext i32 %30 to i64
  %78 = sext i32 %29 to i64
  br i1 %.not, label %.split.us, label %.split

.split.us:                                        ; preds = %67, %.split.us
  %indvars.iv104 = phi i64 [ %indvars.iv.next105, %.split.us ], [ 0, %67 ]
  %79 = getelementptr inbounds nuw [3 x i32], ptr %5, i64 0, i64 %indvars.iv104
  %80 = load i32, ptr %79, align 4, !tbaa !39
  %81 = trunc i32 %80 to i8
  %82 = load ptr, ptr %25, align 8, !tbaa !46
  %83 = getelementptr inbounds [8 x [8 x [4 x i8]]], ptr %82, i64 0, i64 %77, i64 %78, i64 %indvars.iv104
  store i8 %81, ptr %83, align 1, !tbaa !48
  %indvars.iv.next105 = add nuw nsw i64 %indvars.iv104, 1
  %exitcond107.not = icmp eq i64 %indvars.iv.next105, 3
  br i1 %exitcond107.not, label %.split93.us, label %.split.us, !llvm.loop !73

.split:                                           ; preds = %67, %.split
  %indvars.iv101 = phi i64 [ %indvars.iv.next102, %.split ], [ 0, %67 ]
  %84 = getelementptr inbounds nuw [3 x i32], ptr %5, i64 0, i64 %indvars.iv101
  %85 = load i32, ptr %84, align 4, !tbaa !39
  %86 = sdiv i32 %85, %76
  store i32 %86, ptr %84, align 4, !tbaa !39
  %87 = trunc i32 %86 to i8
  %88 = load ptr, ptr %25, align 8, !tbaa !46
  %89 = getelementptr inbounds [8 x [8 x [4 x i8]]], ptr %88, i64 0, i64 %77, i64 %78, i64 %indvars.iv101
  store i8 %87, ptr %89, align 1, !tbaa !48
  %indvars.iv.next102 = add nuw nsw i64 %indvars.iv101, 1
  %exitcond.not = icmp eq i64 %indvars.iv.next102, 3
  br i1 %exitcond.not, label %.split93.us, label %.split, !llvm.loop !73

.split93.us:                                      ; preds = %.split, %.split.us
  %90 = add nsw i32 %.094, 1
  %exitcond108.not = icmp eq i32 %90, %9
  br i1 %exitcond108.not, label %._crit_edge, label %.preheader, !llvm.loop !74

._crit_edge:                                      ; preds = %.split93.us, %4
  call void @llvm.lifetime.end.p0(i64 12, ptr nonnull %5) #11
  ret i32 0
}